; ModuleID = 'bench/lean4/original/object_ref.ll'
source_filename = "bench/lean4/original/object_ref.ll"
target datalayout = "e-m:e-p270:32:32-p271:32:32-p272:64:64-i64:64-i128:128-f80:128-n8:16:32:64-S128"
target triple = "x86_64-pc-linux-gnu"

module asm ".globl _ZSt21ios_base_library_initv"

%"class.lean::object_ref" = type { ptr }

; Function Attrs: mustprogress uwtable
define void @_ZN4lean8mk_cnstrEjjPP11lean_objectj(ptr dead_on_unwind noalias writable writeonly sret(%"class.lean::object_ref") align 8 captures(none) %0, i32 noundef %1, i32 noundef %2, ptr noundef readonly captures(none) %3, i32 noundef %4) local_unnamed_addr #0 {
  %6 = shl i32 %2, 3
  %7 = add i32 %6, 8
  %8 = add i32 %7, %4
  %9 = zext i32 %8 to i64
  %10 = and i64 %9, 4294967288
  %11 = and i64 %9, 7
  %.not.i.i.i.i = icmp eq i64 %11, 0
  %12 = select i1 %.not.i.i.i.i, i64 0, i64 8
  %13 = add nuw nsw i64 %12, %10
  tail call void @lean_inc_heartbeat()
  %14 = and i64 %13, 4294967288
  %15 = tail call noalias ptr @mi_malloc_small(i64 noundef %14) #5
  %16 = icmp eq ptr %15, null
  br i1 %16, label %17, label %_ZL23lean_alloc_small_objectj.exit.i.i.i

17:                                               ; preds = %5
  tail call void @lean_internal_panic_out_of_memory() #6
  unreachable

_ZL23lean_alloc_small_objectj.exit.i.i.i:         ; preds = %5
  %18 = trunc i64 %13 to i32
  %19 = getelementptr inbounds nuw i8, ptr %15, i64 4
  %20 = load i32, ptr %19, align 4
  %21 = and i32 %18, 65528
  %22 = and i32 %20, -65536
  %23 = or disjoint i32 %22, %21
  store i32 %23, ptr %19, align 4
  %24 = icmp ult i32 %8, %18
  br i1 %24, label %25, label %_ZN4lean11alloc_cnstrEjjj.exit

25:                                               ; preds = %_ZL23lean_alloc_small_objectj.exit.i.i.i
  %26 = getelementptr inbounds nuw i8, ptr %15, i64 %14
  %27 = getelementptr inbounds i8, ptr %26, i64 -8
  store i64 0, ptr %27, align 8, !tbaa !3
  %.pre.i.i = load i32, ptr %19, align 4
  %28 = and i32 %.pre.i.i, 65535
  br label %_ZN4lean11alloc_cnstrEjjj.exit

_ZN4lean11alloc_cnstrEjjj.exit:                   ; preds = %_ZL23lean_alloc_small_objectj.exit.i.i.i, %25
  %29 = phi i32 [ %21, %_ZL23lean_alloc_small_objectj.exit.i.i.i ], [ %28, %25 ]
  store i32 1, ptr %15, align 4, !tbaa !7
  %30 = shl i32 %1, 24
  %31 = or disjoint i32 %29, %30
  %32 = shl i32 %2, 16
  %33 = and i32 %32, 16711680
  %34 = or disjoint i32 %31, %33
  store i32 %34, ptr %19, align 4
  %.not = icmp eq i32 %2, 0
  br i1 %.not, label %._crit_edge, label %.lr.ph

.lr.ph:                                           ; preds = %_ZN4lean11alloc_cnstrEjjj.exit
  %35 = getelementptr inbounds nuw i8, ptr %15, i64 8
  %36 = zext i32 %2 to i64
  %37 = shl nuw nsw i64 %36, 3
  tail call void @llvm.memcpy.p0.p0.i64(ptr nonnull align 8 %35, ptr align 8 %3, i64 %37, i1 false), !tbaa !10
  br label %._crit_edge

._crit_edge:                                      ; preds = %.lr.ph, %_ZN4lean11alloc_cnstrEjjj.exit
  store ptr %15, ptr %0, align 8, !tbaa !12
  ret void
}

declare void @lean_inc_heartbeat() local_unnamed_addr #1

; Function Attrs: nounwind
declare noalias ptr @mi_malloc_small(i64 noundef) local_unnamed_addr #2

; Function Attrs: noreturn
declare void @lean_internal_panic_out_of_memory() local_unnamed_addr #3

; Function Attrs: nocallback nofree nounwind willreturn memory(argmem: readwrite)
declare void @llvm.memcpy.p0.p0.i64(ptr noalias writeonly captures(none), ptr noalias readonly captures(none), i64, i1 immarg) #4


!llvm.module.flags = !{!0, !1, !2}

!0 = !{i32 1, !"wchar_size", i32 4}
!1 = !{i32 8, !"PIC Level", i32 2}
!2 = !{i32 7, !"uwtable", i32 2}
!3 = !{!4, !4, i64 0}
!4 = !{!"long", !5, i64 0}
!5 = !{!"omnipotent char", !6, i64 0}
!6 = !{!"Simple C++ TBAA"}
!7 = !{!8, !9, i64 0}
!8 = !{!"_ZTS11lean_object", !9, i64 0, !9, i64 4, !9, i64 6, !9, i64 7}
!9 = !{!"int", !5, i64 0}
!10 = !{!11, !11, i64 0}
!11 = !{!"any pointer", !5, i64 0}
!12 = !{!13, !11, i64 0}
!13 = !{!"_ZTSN4lean10object_refE", !11, i64 0}
